target datalayout = "e-m:e-p270:32:32-p271:32:32-p272:64:64-i64:64-i128:128-f80:128-n8:16:32:64-S128"
target triple = "x86_64-pc-linux-gnu"

@.str = private unnamed_addr constant [41 x i8] c"../openssl/test/evp_pkey_provided_test.c\00", align 1
@datadir = internal global ptr null, align 8
@.str.26 = private unnamed_addr constant [4 x i8] c"len\00", align 1
@.str.66 = private unnamed_addr constant [2 x i8] c"0\00", align 1
@.str.97 = private unnamed_addr constant [9 x i8] c"priv.txt\00", align 1
@.str.98 = private unnamed_addr constant [9 x i8] c"priv.pem\00", align 1
@.str.99 = private unnamed_addr constant [9 x i8] c"priv.der\00", align 1
@.str.100 = private unnamed_addr constant [8 x i8] c"pub.txt\00", align 1
@.str.101 = private unnamed_addr constant [8 x i8] c"pub.pem\00", align 1
@.str.102 = private unnamed_addr constant [8 x i8] c"pub.der\00", align 1
@.str.103 = private unnamed_addr constant [18 x i8] c"Invalid file type\00", align 1
@.str.104 = private unnamed_addr constant [6 x i8] c"%s.%s\00", align 1
@.str.105 = private unnamed_addr constant [9 x i8] c"fullfile\00", align 1
@.str.106 = private unnamed_addr constant [3 x i8] c"rb\00", align 1
@.str.107 = private unnamed_addr constant [5 x i8] c"file\00", align 1
@.str.108 = private unnamed_addr constant [48 x i8] c"BIO_read_ex(file, buf, sizeof(buf), &readbytes)\00", align 1
@.str.109 = private unnamed_addr constant [14 x i8] c"BIO_eof(file)\00", align 1
@.str.110 = private unnamed_addr constant [10 x i8] c"readbytes\00", align 1
@.str.111 = private unnamed_addr constant [12 x i8] c"sizeof(buf)\00", align 1
@.str.112 = private unnamed_addr constant [8 x i8] c"memdata\00", align 1
@.str.113 = private unnamed_addr constant [4 x i8] c"buf\00", align 1

; Function Attrs: nounwind uwtable
define internal void @stripcr(ptr noundef %0, ptr noundef %1) #0 {
  %3 = alloca ptr, align 8
  %4 = alloca ptr, align 8
  %5 = alloca i64, align 8
  %6 = alloca ptr, align 8
  %7 = alloca ptr, align 8
  store ptr %0, ptr %3, align 8, !tbaa !4
  store ptr %1, ptr %4, align 8, !tbaa !40
  call void @llvm.lifetime.start.p0(i64 8, ptr %5) #6
  call void @llvm.lifetime.start.p0(i64 8, ptr %6) #6
  call void @llvm.lifetime.start.p0(i64 8, ptr %7) #6
  %8 = load ptr, ptr %4, align 8, !tbaa !40
  %9 = load i64, ptr %8, align 8, !tbaa !11
  store i64 %9, ptr %5, align 8, !tbaa !11
  %10 = load ptr, ptr %3, align 8, !tbaa !4
  store ptr %10, ptr %6, align 8, !tbaa !4
  %11 = load ptr, ptr %3, align 8, !tbaa !4
  store ptr %11, ptr %7, align 8, !tbaa !4
  br label %12

12:                                               ; preds = %35, %2
  %13 = load i64, ptr %5, align 8, !tbaa !11
  %14 = icmp ugt i64 %13, 0
  br i1 %14, label %15, label %40

15:                                               ; preds = %12
  %16 = load ptr, ptr %6, align 8, !tbaa !4
  %17 = load i8, ptr %16, align 1, !tbaa !36
  %18 = sext i8 %17 to i32
  %19 = icmp eq i32 %18, 13
  br i1 %19, label %20, label %24

20:                                               ; preds = %15
  %21 = load ptr, ptr %4, align 8, !tbaa !40
  %22 = load i64, ptr %21, align 8, !tbaa !11
  %23 = add i64 %22, -1
  store i64 %23, ptr %21, align 8, !tbaa !11
  br label %35

24:                                               ; preds = %15
  %25 = load ptr, ptr %6, align 8, !tbaa !4
  %26 = load ptr, ptr %7, align 8, !tbaa !4
  %27 = icmp ne ptr %25, %26
  br i1 %27, label %28, label %32

28:                                               ; preds = %24
  %29 = load ptr, ptr %6, align 8, !tbaa !4
  %30 = load i8, ptr %29, align 1, !tbaa !36
  %31 = load ptr, ptr %7, align 8, !tbaa !4
  store i8 %30, ptr %31, align 1, !tbaa !36
  br label %32

32:                                               ; preds = %28, %24
  %33 = load ptr, ptr %7, align 8, !tbaa !4
  %34 = getelementptr inbounds nuw i8, ptr %33, i32 1
  store ptr %34, ptr %7, align 8, !tbaa !4
  br label %35

35:                                               ; preds = %32, %20
  %36 = load i64, ptr %5, align 8, !tbaa !11
  %37 = add i64 %36, -1
  store i64 %37, ptr %5, align 8, !tbaa !11
  %38 = load ptr, ptr %6, align 8, !tbaa !4
  %39 = getelementptr inbounds nuw i8, ptr %38, i32 1
  store ptr %39, ptr %6, align 8, !tbaa !4
  br label %12, !llvm.loop !42

40:                                               ; preds = %12
  call void @llvm.lifetime.end.p0(i64 8, ptr %7) #6
  call void @llvm.lifetime.end.p0(i64 8, ptr %6) #6
  call void @llvm.lifetime.end.p0(i64 8, ptr %5) #6
  ret void
}

; Function Attrs: nounwind uwtable
define internal i32 @compare_with_file(ptr noundef %0, i32 noundef %1, ptr noundef %2) #0 {
  %4 = alloca ptr, align 8
  %5 = alloca i32, align 4
  %6 = alloca ptr, align 8
  %7 = alloca [80 x i8], align 16
  %8 = alloca ptr, align 8
  %9 = alloca [4096 x i8], align 16
  %10 = alloca ptr, align 8
  %11 = alloca ptr, align 8
  %12 = alloca ptr, align 8
  %13 = alloca i64, align 8
  %14 = alloca i32, align 4
  %15 = alloca i32, align 4
  %16 = alloca i64, align 8
  store ptr %0, ptr %4, align 8, !tbaa !4
  store i32 %1, ptr %5, align 4, !tbaa !9
  store ptr %2, ptr %6, align 8, !tbaa !37
  call void @llvm.lifetime.start.p0(i64 80, ptr %7) #6
  call void @llvm.lifetime.start.p0(i64 8, ptr %8) #6
  store ptr null, ptr %8, align 8, !tbaa !37
  call void @llvm.lifetime.start.p0(i64 4096, ptr %9) #6
  call void @llvm.lifetime.start.p0(i64 8, ptr %10) #6
  call void @llvm.lifetime.start.p0(i64 8, ptr %11) #6
  store ptr null, ptr %11, align 8, !tbaa !4
  call void @llvm.lifetime.start.p0(i64 8, ptr %12) #6
  call void @llvm.lifetime.start.p0(i64 8, ptr %13) #6
  call void @llvm.lifetime.start.p0(i64 4, ptr %14) #6
  store i32 0, ptr %14, align 4, !tbaa !9
  call void @llvm.lifetime.start.p0(i64 4, ptr %15) #6
  call void @llvm.lifetime.start.p0(i64 8, ptr %16) #6
  %17 = load i32, ptr %5, align 4, !tbaa !9
  switch i32 %17, label %24 [
    i32 0, label %18
    i32 1, label %19
    i32 2, label %20
    i32 3, label %21
    i32 4, label %22
    i32 5, label %23
  ]

18:                                               ; preds = %3
  store ptr @.str.97, ptr %12, align 8, !tbaa !4
  br label %25

19:                                               ; preds = %3
  store ptr @.str.98, ptr %12, align 8, !tbaa !4
  br label %25

20:                                               ; preds = %3
  store ptr @.str.99, ptr %12, align 8, !tbaa !4
  br label %25

21:                                               ; preds = %3
  store ptr @.str.100, ptr %12, align 8, !tbaa !4
  br label %25

22:                                               ; preds = %3
  store ptr @.str.101, ptr %12, align 8, !tbaa !4
  br label %25

23:                                               ; preds = %3
  store ptr @.str.102, ptr %12, align 8, !tbaa !4
  br label %25

24:                                               ; preds = %3
  call void (ptr, i32, ptr, ...) @test_error(ptr noundef @.str, i32 noundef 92, ptr noundef @.str.103)
  br label %93

25:                                               ; preds = %23, %22, %21, %20, %19, %18
  %26 = getelementptr inbounds [80 x i8], ptr %7, i64 0, i64 0
  %27 = load ptr, ptr %4, align 8, !tbaa !4
  %28 = load ptr, ptr %12, align 8, !tbaa !4
  %29 = call i32 (ptr, i64, ptr, ...) @BIO_snprintf(ptr noundef %26, i64 noundef 80, ptr noundef @.str.104, ptr noundef %27, ptr noundef %28)
  %30 = load ptr, ptr @datadir, align 8, !tbaa !4
  %31 = getelementptr inbounds [80 x i8], ptr %7, i64 0, i64 0
  %32 = call ptr @test_mk_file_path(ptr noundef %30, ptr noundef %31)
  store ptr %32, ptr %11, align 8, !tbaa !4
  %33 = load ptr, ptr %11, align 8, !tbaa !4
  %34 = call i32 @test_ptr(ptr noundef @.str, i32 noundef 98, ptr noundef @.str.105, ptr noundef %33)
  %35 = icmp ne i32 %34, 0
  br i1 %35, label %37, label %36

36:                                               ; preds = %25
  br label %93

37:                                               ; preds = %25
  %38 = load ptr, ptr %11, align 8, !tbaa !4
  %39 = call ptr @BIO_new_file(ptr noundef %38, ptr noundef @.str.106)
  store ptr %39, ptr %8, align 8, !tbaa !37
  %40 = load ptr, ptr %8, align 8, !tbaa !37
  %41 = call i32 @test_ptr(ptr noundef @.str, i32 noundef 102, ptr noundef @.str.107, ptr noundef %40)
  %42 = icmp ne i32 %41, 0
  br i1 %42, label %44, label %43

43:                                               ; preds = %37
  br label %93

44:                                               ; preds = %37
  %45 = load ptr, ptr %8, align 8, !tbaa !37
  %46 = getelementptr inbounds [4096 x i8], ptr %9, i64 0, i64 0
  %47 = call i32 @BIO_read_ex(ptr noundef %45, ptr noundef %46, i64 noundef 4096, ptr noundef %13)
  %48 = icmp ne i32 %47, 0
  %49 = zext i1 %48 to i32
  %50 = call i32 @test_true(ptr noundef @.str, i32 noundef 105, ptr noundef @.str.108, i32 noundef %49)
  %51 = icmp ne i32 %50, 0
  br i1 %51, label %52, label %64

52:                                               ; preds = %44
  %53 = load ptr, ptr %8, align 8, !tbaa !37
  %54 = call i64 @BIO_ctrl(ptr noundef %53, i32 noundef 2, i64 noundef 0, ptr noundef null)
  %55 = trunc i64 %54 to i32
  %56 = icmp ne i32 %55, 0
  %57 = zext i1 %56 to i32
  %58 = call i32 @test_true(ptr noundef @.str, i32 noundef 106, ptr noundef @.str.109, i32 noundef %57)
  %59 = icmp ne i32 %58, 0
  br i1 %59, label %60, label %64

60:                                               ; preds = %52
  %61 = load i64, ptr %13, align 8, !tbaa !11
  %62 = call i32 @test_size_t_lt(ptr noundef @.str, i32 noundef 107, ptr noundef @.str.110, ptr noundef @.str.111, i64 noundef %61, i64 noundef 4096)
  %63 = icmp ne i32 %62, 0
  br i1 %63, label %65, label %64

64:                                               ; preds = %60, %52, %44
  br label %93

65:                                               ; preds = %60
  %66 = load ptr, ptr %6, align 8, !tbaa !37
  %67 = call i64 @BIO_ctrl(ptr noundef %66, i32 noundef 3, i64 noundef 0, ptr noundef %10)
  %68 = trunc i64 %67 to i32
  store i32 %68, ptr %15, align 4, !tbaa !9
  %69 = load i32, ptr %15, align 4, !tbaa !9
  %70 = call i32 @test_int_gt(ptr noundef @.str, i32 noundef 111, ptr noundef @.str.26, ptr noundef @.str.66, i32 noundef %69, i32 noundef 0)
  %71 = icmp ne i32 %70, 0
  br i1 %71, label %73, label %72

72:                                               ; preds = %65
  br label %93

73:                                               ; preds = %65
  %74 = load i32, ptr %15, align 4, !tbaa !9
  %75 = sext i32 %74 to i64
  store i64 %75, ptr %16, align 8, !tbaa !11
  %76 = load i32, ptr %5, align 4, !tbaa !9
  %77 = icmp ne i32 %76, 2
  br i1 %77, label %78, label %84

78:                                               ; preds = %73
  %79 = load i32, ptr %5, align 4, !tbaa !9
  %80 = icmp ne i32 %79, 5
  br i1 %80, label %81, label %84

81:                                               ; preds = %78
  %82 = load ptr, ptr %10, align 8, !tbaa !4
  call void @stripcr(ptr noundef %82, ptr noundef %16)
  %83 = getelementptr inbounds [4096 x i8], ptr %9, i64 0, i64 0
  call void @stripcr(ptr noundef %83, ptr noundef %13)
  br label %84

84:                                               ; preds = %81, %78, %73
  %85 = load ptr, ptr %10, align 8, !tbaa !4
  %86 = load i64, ptr %16, align 8, !tbaa !11
  %87 = getelementptr inbounds [4096 x i8], ptr %9, i64 0, i64 0
  %88 = load i64, ptr %13, align 8, !tbaa !11
  %89 = call i32 @test_mem_eq(ptr noundef @.str, i32 noundef 120, ptr noundef @.str.112, ptr noundef @.str.113, ptr noundef %85, i64 noundef %86, ptr noundef %87, i64 noundef %88)
  %90 = icmp ne i32 %89, 0
  br i1 %90, label %92, label %91

91:                                               ; preds = %84
  br label %93

92:                                               ; preds = %84
  store i32 1, ptr %14, align 4, !tbaa !9
  br label %93

93:                                               ; preds = %92, %91, %72, %64, %43, %36, %24
  %94 = load ptr, ptr %11, align 8, !tbaa !4
  call void @CRYPTO_free(ptr noundef %94, ptr noundef @.str, i32 noundef 125)
  %95 = load ptr, ptr %6, align 8, !tbaa !37
  %96 = call i64 @BIO_ctrl(ptr noundef %95, i32 noundef 1, i64 noundef 0, ptr noundef null)
  %97 = load ptr, ptr %8, align 8, !tbaa !37
  %98 = call i32 @BIO_free(ptr noundef %97)
  %99 = load i32, ptr %14, align 4, !tbaa !9
  call void @llvm.lifetime.end.p0(i64 8, ptr %16) #6
  call void @llvm.lifetime.end.p0(i64 4, ptr %15) #6
  call void @llvm.lifetime.end.p0(i64 4, ptr %14) #6
  call void @llvm.lifetime.end.p0(i64 8, ptr %13) #6
  call void @llvm.lifetime.end.p0(i64 8, ptr %12) #6
  call void @llvm.lifetime.end.p0(i64 8, ptr %11) #6
  call void @llvm.lifetime.end.p0(i64 8, ptr %10) #6
  call void @llvm.lifetime.end.p0(i64 4096, ptr %9) #6
  call void @llvm.lifetime.end.p0(i64 8, ptr %8) #6
  call void @llvm.lifetime.end.p0(i64 80, ptr %7) #6
  ret i32 %99
}