; Function Attrs: nounwind uwtable
define internal fastcc range(i32 0, 2) i32 @compare_with_file(ptr noundef %0, i32 noundef range(i32 -2147483648, 6) %1, ptr noundef %2) unnamed_addr #0 {
  %4 = alloca [80 x i8], align 16
  %5 = alloca [4096 x i8], align 16
  %6 = alloca ptr, align 8
  %7 = alloca i64, align 8
  call void @llvm.lifetime.start.p0(i64 80, ptr nonnull %4) #6
  call void @llvm.lifetime.start.p0(i64 4096, ptr nonnull %5) #6
  call void @llvm.lifetime.start.p0(i64 8, ptr nonnull %6) #6
  call void @llvm.lifetime.start.p0(i64 8, ptr nonnull %7) #6
  %8 = icmp ult i32 %1, 6
  br i1 %8, label %switch.lookup, label %9

9:                                                ; preds = %3
  tail call void (ptr, i32, ptr, ...) @test_error(ptr noundef nonnull @.str, i32 noundef 92, ptr noundef nonnull @.str.103) #6
  br label %67

switch.lookup:                                    ; preds = %3
  %10 = zext nneg i32 %1 to i64
  %switch.gep = getelementptr inbounds nuw [6 x ptr], ptr @switch.table.compare_with_file, i64 0, i64 %10
  %switch.load = load ptr, ptr %switch.gep, align 8
  %11 = call i32 (ptr, i64, ptr, ...) @BIO_snprintf(ptr noundef nonnull %4, i64 noundef 80, ptr noundef nonnull @.str.104, ptr noundef %0, ptr noundef nonnull %switch.load) #6
  %12 = load ptr, ptr @datadir, align 8, !tbaa !4
  %13 = call ptr @test_mk_file_path(ptr noundef %12, ptr noundef nonnull %4) #6
  %14 = call i32 @test_ptr(ptr noundef nonnull @.str, i32 noundef 98, ptr noundef nonnull @.str.105, ptr noundef %13) #6
  %.not = icmp eq i32 %14, 0
  br i1 %.not, label %67, label %15

15:                                               ; preds = %switch.lookup
  %16 = call ptr @BIO_new_file(ptr noundef %13, ptr noundef nonnull @.str.106) #6
  %17 = call i32 @test_ptr(ptr noundef nonnull @.str, i32 noundef 102, ptr noundef nonnull @.str.107, ptr noundef %16) #6
  %.not20 = icmp eq i32 %17, 0
  br i1 %.not20, label %67, label %18

18:                                               ; preds = %15
  %19 = call i32 @BIO_read_ex(ptr noundef %16, ptr noundef nonnull %5, i64 noundef 4096, ptr noundef nonnull %7) #6
  %20 = icmp ne i32 %19, 0
  %21 = zext i1 %20 to i32
  %22 = call i32 @test_true(ptr noundef nonnull @.str, i32 noundef 105, ptr noundef nonnull @.str.108, i32 noundef %21) #6
  %.not21 = icmp eq i32 %22, 0
  br i1 %.not21, label %67, label %23

23:                                               ; preds = %18
  %24 = call i64 @BIO_ctrl(ptr noundef %16, i32 noundef 2, i64 noundef 0, ptr noundef null) #6
  %25 = and i64 %24, 4294967295
  %26 = icmp ne i64 %25, 0
  %27 = zext i1 %26 to i32
  %28 = call i32 @test_true(ptr noundef nonnull @.str, i32 noundef 106, ptr noundef nonnull @.str.109, i32 noundef %27) #6
  %.not22 = icmp eq i32 %28, 0
  br i1 %.not22, label %67, label %29

29:                                               ; preds = %23
  %30 = load i64, ptr %7, align 8, !tbaa !9
  %31 = call i32 @test_size_t_lt(ptr noundef nonnull @.str, i32 noundef 107, ptr noundef nonnull @.str.110, ptr noundef nonnull @.str.111, i64 noundef %30, i64 noundef 4096) #6
  %.not23 = icmp eq i32 %31, 0
  br i1 %.not23, label %67, label %32

32:                                               ; preds = %29
  %33 = call i64 @BIO_ctrl(ptr noundef %2, i32 noundef 3, i64 noundef 0, ptr noundef nonnull %6) #6
  %34 = trunc i64 %33 to i32
  %35 = call i32 @test_int_gt(ptr noundef nonnull @.str, i32 noundef 111, ptr noundef nonnull @.str.26, ptr noundef nonnull @.str.66, i32 noundef %34, i32 noundef 0) #6
  %.not24 = icmp eq i32 %35, 0
  br i1 %.not24, label %67, label %36

36:                                               ; preds = %32
  %sext = shl i64 %33, 32
  %37 = ashr exact i64 %sext, 32
  switch i32 %1, label %38 [
    i32 5, label %stripcr.exit34
    i32 2, label %stripcr.exit34
  ]

38:                                               ; preds = %36
  %.not15.i = icmp eq i64 %sext, 0
  br i1 %.not15.i, label %stripcr.exit, label %.lr.ph.i.preheader

.lr.ph.i.preheader:                               ; preds = %38
  %39 = load ptr, ptr %6, align 8, !tbaa !4
  br label %.lr.ph.i

.lr.ph.i:                                         ; preds = %.lr.ph.i.preheader, %48
  %.1 = phi i64 [ %.2, %48 ], [ %37, %.lr.ph.i.preheader ]
  %.018.i = phi ptr [ %.1.i, %48 ], [ %39, %.lr.ph.i.preheader ]
  %.01217.i = phi ptr [ %50, %48 ], [ %39, %.lr.ph.i.preheader ]
  %.01316.i = phi i64 [ %49, %48 ], [ %37, %.lr.ph.i.preheader ]
  %40 = load i8, ptr %.01217.i, align 1, !tbaa !30
  %41 = icmp eq i8 %40, 13
  br i1 %41, label %42, label %44

42:                                               ; preds = %.lr.ph.i
  %43 = add i64 %.1, -1
  br label %48

44:                                               ; preds = %.lr.ph.i
  %.not14.i = icmp eq ptr %.01217.i, %.018.i
  br i1 %.not14.i, label %46, label %45

45:                                               ; preds = %44
  store i8 %40, ptr %.018.i, align 1, !tbaa !30
  br label %46

46:                                               ; preds = %45, %44
  %47 = getelementptr inbounds nuw i8, ptr %.018.i, i64 1
  br label %48

48:                                               ; preds = %46, %42
  %.2 = phi i64 [ %43, %42 ], [ %.1, %46 ]
  %.1.i = phi ptr [ %.018.i, %42 ], [ %47, %46 ]
  %49 = add i64 %.01316.i, -1
  %50 = getelementptr inbounds nuw i8, ptr %.01217.i, i64 1
  %.not.i = icmp eq i64 %49, 0
  br i1 %.not.i, label %stripcr.exit, label %.lr.ph.i, !llvm.loop !33

stripcr.exit:                                     ; preds = %48, %38
  %.3 = phi i64 [ 0, %38 ], [ %.2, %48 ]
  %51 = load i64, ptr %7, align 8, !tbaa !9
  %.not15.i26 = icmp eq i64 %51, 0
  br i1 %.not15.i26, label %stripcr.exit34, label %.lr.ph.i27

.lr.ph.i27:                                       ; preds = %stripcr.exit, %61
  %.018.i28 = phi ptr [ %.1.i32, %61 ], [ %5, %stripcr.exit ]
  %.01217.i29 = phi ptr [ %63, %61 ], [ %5, %stripcr.exit ]
  %.01316.i30 = phi i64 [ %62, %61 ], [ %51, %stripcr.exit ]
  %52 = load i8, ptr %.01217.i29, align 1, !tbaa !30
  %53 = icmp eq i8 %52, 13
  br i1 %53, label %54, label %57

54:                                               ; preds = %.lr.ph.i27
  %55 = load i64, ptr %7, align 8, !tbaa !9
  %56 = add i64 %55, -1
  store i64 %56, ptr %7, align 8, !tbaa !9
  br label %61

57:                                               ; preds = %.lr.ph.i27
  %.not14.i31 = icmp eq ptr %.01217.i29, %.018.i28
  br i1 %.not14.i31, label %59, label %58

58:                                               ; preds = %57
  store i8 %52, ptr %.018.i28, align 1, !tbaa !30
  br label %59

59:                                               ; preds = %58, %57
  %60 = getelementptr inbounds nuw i8, ptr %.018.i28, i64 1
  br label %61

61:                                               ; preds = %59, %54
  %.1.i32 = phi ptr [ %.018.i28, %54 ], [ %60, %59 ]
  %62 = add i64 %.01316.i30, -1
  %63 = getelementptr inbounds nuw i8, ptr %.01217.i29, i64 1
  %.not.i33 = icmp eq i64 %62, 0
  br i1 %.not.i33, label %stripcr.exit34, label %.lr.ph.i27, !llvm.loop !33

stripcr.exit34:                                   ; preds = %61, %stripcr.exit, %36, %36
  %.037 = phi i64 [ %37, %36 ], [ %37, %36 ], [ %.3, %stripcr.exit ], [ %.3, %61 ]
  %64 = load ptr, ptr %6, align 8, !tbaa !4
  %65 = load i64, ptr %7, align 8, !tbaa !9
  %66 = call i32 @test_mem_eq(ptr noundef nonnull @.str, i32 noundef 120, ptr noundef nonnull @.str.112, ptr noundef nonnull @.str.113, ptr noundef %64, i64 noundef %.037, ptr noundef nonnull %5, i64 noundef %65) #6
  %.not25 = icmp ne i32 %66, 0
  %spec.select = zext i1 %.not25 to i32
  br label %67

67:                                               ; preds = %stripcr.exit34, %32, %18, %23, %29, %15, %switch.lookup, %9
  %.019 = phi ptr [ null, %9 ], [ %13, %32 ], [ %13, %29 ], [ %13, %23 ], [ %13, %18 ], [ %13, %15 ], [ %13, %switch.lookup ], [ %13, %stripcr.exit34 ]
  %.017 = phi i32 [ 0, %9 ], [ 0, %32 ], [ 0, %29 ], [ 0, %23 ], [ 0, %18 ], [ 0, %15 ], [ 0, %switch.lookup ], [ %spec.select, %stripcr.exit34 ]
  %.0 = phi ptr [ null, %9 ], [ %16, %32 ], [ %16, %29 ], [ %16, %23 ], [ %16, %18 ], [ %16, %15 ], [ null, %switch.lookup ], [ %16, %stripcr.exit34 ]
  call void @CRYPTO_free(ptr noundef %.019, ptr noundef nonnull @.str, i32 noundef 125) #6
  %68 = call i64 @BIO_ctrl(ptr noundef %2, i32 noundef 1, i64 noundef 0, ptr noundef null) #6
  %69 = call i32 @BIO_free(ptr noundef %.0) #6
  call void @llvm.lifetime.end.p0(i64 8, ptr nonnull %7) #6
  call void @llvm.lifetime.end.p0(i64 8, ptr nonnull %6) #6
  call void @llvm.lifetime.end.p0(i64 4096, ptr nonnull %5) #6
  call void @llvm.lifetime.end.p0(i64 80, ptr nonnull %4) #6
  ret i32 %.017
}